; ModuleID = '35/371.c'
source_filename = "35/371.c"
target datalayout = "e-m:e-p270:32:32-p271:32:32-p272:64:64-i64:64-f80:128-n8:16:32:64-S128"
target triple = "x86_64-pc-linux-gnu"

@.str = private unnamed_addr constant [6 x i8] c"%d,%d\00", align 1
@.str.1 = private unnamed_addr constant [3 x i8] c"%d\00", align 1
@.str.2 = private unnamed_addr constant [6 x i8] c"%d+%d\00", align 1
@.str.3 = private unnamed_addr constant [3 x i8] c"No\00", align 1

; Function Attrs: noinline nounwind uwtable
define dso_local i32 @main(i32 %0, i8** %1) #0 {
  %3 = alloca i32, align 4
  %4 = alloca i32, align 4
  %5 = alloca i8**, align 8
  %6 = alloca i32, align 4
  %7 = alloca i32, align 4
  %8 = alloca [8 x [8 x i32]], align 16
  %9 = alloca i32, align 4
  %10 = alloca i32, align 4
  %11 = alloca i32, align 4
  %12 = alloca i32, align 4
  %13 = alloca i32, align 4
  %14 = alloca i32, align 4
  %15 = alloca i32, align 4
  store i32 0, i32* %3, align 4
  store i32 %0, i32* %4, align 4
  store i8** %1, i8*** %5, align 8
  store i32 0, i32* %13, align 4
  store i32 0, i32* %14, align 4
  store i32 0, i32* %15, align 4
  %16 = call i32 (i8*, ...) @__isoc99_scanf(i8* getelementptr inbounds ([6 x i8], [6 x i8]* @.str, i64 0, i64 0), i32* %6, i32* %7)
  store i32 0, i32* %9, align 4
  br label %17

17:                                               ; preds = %38, %2
  %18 = load i32, i32* %9, align 4
  %19 = load i32, i32* %6, align 4
  %20 = icmp slt i32 %18, %19
  br i1 %20, label %21, label %41

21:                                               ; preds = %17
  store i32 0, i32* %10, align 4
  br label %22

22:                                               ; preds = %34, %21
  %23 = load i32, i32* %10, align 4
  %24 = load i32, i32* %7, align 4
  %25 = icmp slt i32 %23, %24
  br i1 %25, label %26, label %37

26:                                               ; preds = %22
  %27 = load i32, i32* %9, align 4
  %28 = sext i32 %27 to i64
  %29 = getelementptr inbounds [8 x [8 x i32]], [8 x [8 x i32]]* %8, i64 0, i64 %28
  %30 = load i32, i32* %10, align 4
  %31 = sext i32 %30 to i64
  %32 = getelementptr inbounds [8 x i32], [8 x i32]* %29, i64 0, i64 %31
  %33 = call i32 (i8*, ...) @__isoc99_scanf(i8* getelementptr inbounds ([3 x i8], [3 x i8]* @.str.1, i64 0, i64 0), i32* %32)
  br label %34

34:                                               ; preds = %26
  %35 = load i32, i32* %10, align 4
  %36 = add nsw i32 %35, 1
  store i32 %36, i32* %10, align 4
  br label %22

37:                                               ; preds = %22
  br label %38

38:                                               ; preds = %37
  %39 = load i32, i32* %9, align 4
  %40 = add nsw i32 %39, 1
  store i32 %40, i32* %9, align 4
  br label %17

41:                                               ; preds = %17
  store i32 0, i32* %9, align 4
  br label %42

42:                                               ; preds = %113, %41
  %43 = load i32, i32* %9, align 4
  %44 = load i32, i32* %6, align 4
  %45 = icmp slt i32 %43, %44
  br i1 %45, label %46, label %116

46:                                               ; preds = %42
  store i32 0, i32* %15, align 4
  %47 = load i32, i32* %9, align 4
  %48 = sext i32 %47 to i64
  %49 = getelementptr inbounds [8 x [8 x i32]], [8 x [8 x i32]]* %8, i64 0, i64 %48
  %50 = getelementptr inbounds [8 x i32], [8 x i32]* %49, i64 0, i64 0
  %51 = load i32, i32* %50, align 16
  store i32 %51, i32* %11, align 4
  %52 = load i32, i32* %9, align 4
  store i32 %52, i32* %13, align 4
  store i32 0, i32* %14, align 4
  store i32 0, i32* %10, align 4
  br label %53

53:                                               ; preds = %78, %46
  %54 = load i32, i32* %10, align 4
  %55 = load i32, i32* %7, align 4
  %56 = icmp slt i32 %54, %55
  br i1 %56, label %57, label %81

57:                                               ; preds = %53
  %58 = load i32, i32* %9, align 4
  %59 = sext i32 %58 to i64
  %60 = getelementptr inbounds [8 x [8 x i32]], [8 x [8 x i32]]* %8, i64 0, i64 %59
  %61 = load i32, i32* %10, align 4
  %62 = sext i32 %61 to i64
  %63 = getelementptr inbounds [8 x i32], [8 x i32]* %60, i64 0, i64 %62
  %64 = load i32, i32* %63, align 4
  %65 = load i32, i32* %11, align 4
  %66 = icmp sgt i32 %64, %65
  br i1 %66, label %67, label %77

67:                                               ; preds = %57
  %68 = load i32, i32* %9, align 4
  %69 = sext i32 %68 to i64
  %70 = getelementptr inbounds [8 x [8 x i32]], [8 x [8 x i32]]* %8, i64 0, i64 %69
  %71 = load i32, i32* %10, align 4
  %72 = sext i32 %71 to i64
  %73 = getelementptr inbounds [8 x i32], [8 x i32]* %70, i64 0, i64 %72
  %74 = load i32, i32* %73, align 4
  store i32 %74, i32* %11, align 4
  %75 = load i32, i32* %9, align 4
  store i32 %75, i32* %13, align 4
  %76 = load i32, i32* %10, align 4
  store i32 %76, i32* %14, align 4
  br label %77

77:                                               ; preds = %67, %57
  br label %78

78:                                               ; preds = %77
  %79 = load i32, i32* %10, align 4
  %80 = add nsw i32 %79, 1
  store i32 %80, i32* %10, align 4
  br label %53

81:                                               ; preds = %53
  store i32 0, i32* %12, align 4
  br label %82

82:                                               ; preds = %101, %81
  %83 = load i32, i32* %12, align 4
  %84 = load i32, i32* %6, align 4
  %85 = icmp slt i32 %83, %84
  br i1 %85, label %86, label %104

86:                                               ; preds = %82
  %87 = load i32, i32* %12, align 4
  %88 = sext i32 %87 to i64
  %89 = getelementptr inbounds [8 x [8 x i32]], [8 x [8 x i32]]* %8, i64 0, i64 %88
  %90 = load i32, i32* %14, align 4
  %91 = sext i32 %90 to i64
  %92 = getelementptr inbounds [8 x i32], [8 x i32]* %89, i64 0, i64 %91
  %93 = load i32, i32* %92, align 4
  %94 = load i32, i32* %11, align 4
  %95 = icmp slt i32 %93, %94
  br i1 %95, label %96, label %97

96:                                               ; preds = %86
  br label %104

97:                                               ; preds = %86
  %98 = load i32, i32* %15, align 4
  %99 = add nsw i32 %98, 1
  store i32 %99, i32* %15, align 4
  br label %100

100:                                              ; preds = %97
  br label %101

101:                                              ; preds = %100
  %102 = load i32, i32* %12, align 4
  %103 = add nsw i32 %102, 1
  store i32 %103, i32* %12, align 4
  br label %82

104:                                              ; preds = %96, %82
  %105 = load i32, i32* %15, align 4
  %106 = load i32, i32* %6, align 4
  %107 = icmp eq i32 %105, %106
  br i1 %107, label %108, label %112

108:                                              ; preds = %104
  %109 = load i32, i32* %13, align 4
  %110 = load i32, i32* %14, align 4
  %111 = call i32 (i8*, ...) @printf(i8* getelementptr inbounds ([6 x i8], [6 x i8]* @.str.2, i64 0, i64 0), i32 %109, i32 %110)
  br label %116

112:                                              ; preds = %104
  br label %113

113:                                              ; preds = %112
  %114 = load i32, i32* %9, align 4
  %115 = add nsw i32 %114, 1
  store i32 %115, i32* %9, align 4
  br label %42

116:                                              ; preds = %108, %42
  %117 = load i32, i32* %15, align 4
  %118 = load i32, i32* %6, align 4
  %119 = icmp ne i32 %117, %118
  br i1 %119, label %120, label %122

120:                                              ; preds = %116
  %121 = call i32 (i8*, ...) @printf(i8* getelementptr inbounds ([3 x i8], [3 x i8]* @.str.3, i64 0, i64 0))
  br label %122

122:                                              ; preds = %120, %116
  ret i32 0
}

declare dso_local i32 @__isoc99_scanf(i8*, ...) #1

declare dso_local i32 @printf(i8*, ...) #1


!llvm.module.flags = !{!0}
!llvm.ident = !{!1}

!0 = !{i32 1, !"wchar_size", i32 4}
!1 = !{!"clang version 10.0.0-4ubuntu1 "}
